target datalayout = "e-m:e-p270:32:32-p271:32:32-p272:64:64-i64:64-i128:128-f80:128-n8:16:32:64-S128"
target triple = "x86_64-pc-linux-gnu"

%struct._object = type { %union.anon, ptr }
%union.anon = type { i64 }
%struct.ElementObject = type { %struct._object, ptr, ptr, ptr, ptr, ptr }
%struct.ElementObjectExtra = type { ptr, i64, i64, ptr, [4 x ptr] }

@PyExc_DeprecationWarning = external global ptr, align 8
@.str.105 = private unnamed_addr constant [139 x i8] c"Testing an element's truth value will always return True in future versions.  Use specific 'len(elem)' or 'elem is not None' test instead.\00", align 1

; Function Attrs: nounwind uwtable
define internal i32 @element_bool(ptr noundef %0) #0 {
  %2 = alloca i32, align 4
  %3 = alloca ptr, align 8
  %4 = alloca ptr, align 8
  %5 = alloca i32, align 4
  store ptr %0, ptr %3, align 8, !tbaa !3
  call void @llvm.lifetime.start.p0(i64 8, ptr %4) #8
  %6 = load ptr, ptr %3, align 8, !tbaa !3
  store ptr %6, ptr %4, align 8, !tbaa !8
  %7 = load ptr, ptr @PyExc_DeprecationWarning, align 8, !tbaa !3
  %8 = call i32 @PyErr_WarnEx(ptr noundef %7, ptr noundef @.str.105, i64 noundef 1)
  %9 = icmp slt i32 %8, 0
  br i1 %9, label %10, label %11

10:                                               ; preds = %1
  store i32 -1, ptr %2, align 4
  store i32 1, ptr %5, align 4
  br label %26

11:                                               ; preds = %1
  %12 = load ptr, ptr %4, align 8, !tbaa !8
  %13 = getelementptr inbounds nuw %struct.ElementObject, ptr %12, i32 0, i32 4
  %14 = load ptr, ptr %13, align 8, !tbaa !42
  %15 = icmp ne ptr %14, null
  br i1 %15, label %16, label %23

16:                                               ; preds = %11
  %17 = load ptr, ptr %4, align 8, !tbaa !8
  %18 = getelementptr inbounds nuw %struct.ElementObject, ptr %17, i32 0, i32 4
  %19 = load ptr, ptr %18, align 8, !tbaa !42
  %20 = getelementptr inbounds nuw %struct.ElementObjectExtra, ptr %19, i32 0, i32 1
  %21 = load i64, ptr %20, align 8, !tbaa !50
  %22 = icmp ne i64 %21, 0
  br i1 %22, label %24, label %25

23:                                               ; preds = %11
  br i1 false, label %24, label %25

24:                                               ; preds = %23, %16
  store i32 1, ptr %2, align 4
  store i32 1, ptr %5, align 4
  br label %26

25:                                               ; preds = %23, %16
  store i32 0, ptr %2, align 4
  store i32 1, ptr %5, align 4
  br label %26

26:                                               ; preds = %25, %24, %10
  call void @llvm.lifetime.end.p0(i64 8, ptr %4) #8
  %27 = load i32, ptr %2, align 4
  ret i32 %27
}