; Function Attrs: nounwind uwtable
define internal range(i32 -1, 2) i32 @element_bool(ptr noundef readonly captures(none) %0) #0 {
  %2 = load ptr, ptr @PyExc_DeprecationWarning, align 8, !tbaa !20
  %3 = tail call i32 @PyErr_WarnEx(ptr noundef %2, ptr noundef nonnull @.str.105, i64 noundef 1) #12
  %4 = icmp slt i32 %3, 0
  br i1 %4, label %12, label %5

5:                                                ; preds = %1
  %6 = getelementptr inbounds nuw i8, ptr %0, i64 40
  %7 = load ptr, ptr %6, align 8, !tbaa !37
  %.not = icmp eq ptr %7, null
  br i1 %.not, label %11, label %8

8:                                                ; preds = %5
  %9 = getelementptr inbounds nuw i8, ptr %7, i64 8
  %10 = load i64, ptr %9, align 8, !tbaa !42
  %.not4 = icmp eq i64 %10, 0
  br i1 %.not4, label %11, label %12

11:                                               ; preds = %5, %8
  br label %12

12:                                               ; preds = %8, %1, %11
  %.0 = phi i32 [ 0, %11 ], [ -1, %1 ], [ 1, %8 ]
  ret i32 %.0
}